Certificate:
    Data:
        Version: 3 (0x2)
        Serial Number: 68638 (0x10c1e)
        Signature Algorithm: md5WithRSAEncryption
        Issuer: C=US, ST=California, L=Los Angeles, O=USAePay, OU=Client Cert, CN=cert.usaepay.com
        Validity
            Not Before: Dec 14 02:01:18 2012 GMT
            Not After : Dec 12 02:01:18 2022 GMT
        Subject: C=US, ST=California, O=USAePay, OU=Client 157887-167912, CN=157887-167912/emailAddress=support@usaepay.com
        Subject Public Key Info:
            Public Key Algorithm: rsaEncryption
            RSA Public Key: (1024 bit)
                Modulus (1024 bit):
                    00:bb:2b:f2:33:fa:92:80:20:bf:d0:19:dd:64:1e:
                    71:fe:81:c3:da:c1:91:39:7c:f4:95:10:c3:54:70:
                    c5:ef:a1:75:72:9c:76:ac:e0:f3:c2:78:9e:b0:5c:
                    b4:1a:1b:13:2a:97:42:42:5c:1b:c2:a3:5c:11:a8:
                    91:20:5c:46:6d:fd:56:28:d1:4c:3d:d9:45:dc:58:
                    ce:da:a9:29:9a:5f:8c:d3:41:d4:7c:b9:55:62:bc:
                    10:ad:c0:24:95:a2:18:ee:b1:84:c8:d3:b6:23:15:
                    47:a4:d8:39:2d:f8:bb:2b:a8:21:8d:24:1c:62:62:
                    9f:56:32:ac:45:66:fd:54:7f
                Exponent: 65537 (0x10001)
        X509v3 extensions:
            X509v3 Basic Constraints: 
                CA:FALSE
            Netscape Comment: 
                OpenSSL Generated Certificate
            X509v3 Subject Key Identifier: 
                81:E3:F6:41:99:2D:62:68:9D:74:4F:AE:03:CF:5C:16:81:20:01:4D
            X509v3 Authority Key Identifier: 
                keyid:43:76:8C:F2:A9:CD:0A:E8:DD:76:DA:C1:93:31:64:40:C8:78:2C:E6
                DirName:/C=US/ST=California/L=Los Angeles/O=USAePay/OU=Client Cert/CN=cert.usaepay.com
                serial:00

    Signature Algorithm: md5WithRSAEncryption
        3c:94:8d:e3:7d:c3:40:10:c3:34:52:ad:dd:7e:83:c9:00:21:
        93:3f:40:7b:8c:bb:70:40:3c:52:ae:b0:97:fc:8a:78:c7:06:
        2a:07:cb:39:d2:b3:17:26:a7:26:1e:a8:68:29:a5:a1:67:7f:
        c9:fc:16:49:04:c2:5e:01:9c:b6:b7:59:3f:2b:a7:04:b8:cb:
        12:e4:f3:73:9f:eb:5b:88:fe:1e:88:ce:0f:33:ac:2f:d0:4f:
        c2:f7:3e:b2:20:e8:2b:b2:a0:ae:6e:8b:f5:10:e4:18:48:2a:
        78:db:9d:9d:c1:0d:df:1f:9e:ce:cf:ff:f1:5e:ee:12:f6:b8:
        7c:52
-----BEGIN CERTIFICATE-----
MIIDiTCCAvKgAwIBAgIDAQweMA0GCSqGSIb3DQEBBAUAMHsxCzAJBgNVBAYTAlVT
MRMwEQYDVQQIEwpDYWxpZm9ybmlhMRQwEgYDVQQHEwtMb3MgQW5nZWxlczEQMA4G
A1UEChMHVVNBZVBheTEUMBIGA1UECxMLQ2xpZW50IENlcnQxGTAXBgNVBAMTEGNl
cnQudXNhZXBheS5jb20wHhcNMTIxMjE0MDIwMTE4WhcNMjIxMjEyMDIwMTE4WjCB
jzELMAkGA1UEBhMCVVMxEzARBgNVBAgTCkNhbGlmb3JuaWExEDAOBgNVBAoTB1VT
QWVQYXkxHTAbBgNVBAsTFENsaWVudCAxNTc4ODctMTY3OTEyMRYwFAYDVQQDEw0x
NTc4ODctMTY3OTEyMSIwIAYJKoZIhvcNAQkBFhNzdXBwb3J0QHVzYWVwYXkuY29t
MIGfMA0GCSqGSIb3DQEBAQUAA4GNADCBiQKBgQC7K/Iz+pKAIL/QGd1kHnH+gcPa
wZE5fPSVEMNUcMXvoXVynHas4PPCeJ6wXLQaGxMql0JCXBvCo1wRqJEgXEZt/VYo
0Uw92UXcWM7aqSmaX4zTQdR8uVVivBCtwCSVohjusYTI07YjFUek2Dkt+LsrqCGN
JBxiYp9WMqxFZv1UfwIDAQABo4IBBDCCAQAwCQYDVR0TBAIwADAsBglghkgBhvhC
AQ0EHxYdT3BlblNTTCBHZW5lcmF0ZWQgQ2VydGlmaWNhdGUwHQYDVR0OBBYEFIHj
9kGZLWJonXRPrgPPXBaBIAFNMIGlBgNVHSMEgZ0wgZqAFEN2jPKpzQro3XbawZMx
ZEDIeCzmoX+kfTB7MQswCQYDVQQGEwJVUzETMBEGA1UECBMKQ2FsaWZvcm5pYTEU
MBIGA1UEBxMLTG9zIEFuZ2VsZXMxEDAOBgNVBAoTB1VTQWVQYXkxFDASBgNVBAsT
C0NsaWVudCBDZXJ0MRkwFwYDVQQDExBjZXJ0LnVzYWVwYXkuY29tggEAMA0GCSqG
SIb3DQEBBAUAA4GBADyUjeN9w0AQwzRSrd1+g8kAIZM/QHuMu3BAPFKusJf8injH
BioHyznSsxcmpyYeqGgppaFnf8n8FkkEwl4BnLa3WT8rpwS4yxLk83Of61uI/h6I
zg8zrC/QT8L3PrIg6CuyoK5ui/UQ5BhIKnjbnZ3BDd8fns7P//Fe7hL2uHxS
-----END CERTIFICATE-----
-----BEGIN RSA PRIVATE KEY-----
Proc-Type: 4,ENCRYPTED
DEK-Info: DES-EDE3-CBC,F399792036A202EF

2mirR5B31YmjWjLzrwxrh4d2QC88qzphZzVYDVZ/phtgSjl/ynTpw3HZR/Z82NSP
C3g0IZ31C8jrFZVB7aVOfIIJlOCC4Xu77FurszNmvl2Q0mJ5pkbH7lY4XbiGI0os
ZbdnBqAJ3paRBEAJXgVUka6NpO6y2HTme9MyUQ8torGUk1fwOaWYTJRR3SHIB5R6
EM+nAPpNyB2rm7mTrHpHYJja+dC6BdfGIx+Vo8iejpgSFv3kVALdKHilwhN4dtBP
9ZnQFMWVbFAxKg45/0CSoGv8RrjIXtKtLnlXDTPaVwJSSh8DcaxhhMEeDTueC0X2
TNxtvycpGvos5wM9DXo4ZqnNqFyJmr3OMqyRb7hmpYmcF8xlNhYZMtiCzUguYaX9
CBwe+AW83gHfnvob8kBnvFBiYnNmBZ4AQS8yEe4WiNyy0a4x5sMsWkYSdMfNSL1w
hvEVlOhSRfQhXkbKTLQ6QEBheSD8651pwZT/IOrBAgBn1Q4oTzAApj8NCtNbGdQ1
lTza/ioXI0eT/nbnm5a0KSSZnxFvp+fOG7gyDLea7WzvPUqauu+fvZusRx7sZuK1
Zx8FvP5nccBYQLQOW0XwRIk3/xdt0gs8MtM5qxGdB7+FJzNzTU/4pEt/rNSiH4xJ
wgYlOff0OS1WmyuyhXGVNzZyKBo8mUuGBE30TD1NeBwHZ2Hs3kekP5DzwOIsG+iU
raA5zjYiDKGYUETZGsFeDxzKkAgxzKPGyogVs3OcPyxz6r2XHx7ytFiYW0YWwupr
ZcFFlXja4shusieujcB2hK+Bqhbq57h1lTHesIIvYrkAX2E8KJ9MWA==
-----END RSA PRIVATE KEY-----